target datalayout = "e-m:e-p270:32:32-p271:32:32-p272:64:64-i64:64-i128:128-f80:128-n8:16:32:64-S128"
target triple = "x86_64-pc-linux-gnu"

%union.pthread_mutex_t = type { %struct.__pthread_mutex_s }
%struct.__pthread_mutex_s = type { i32, i32, i32, i32, i32, i16, i16, %struct.__pthread_internal_list }
%struct.__pthread_internal_list = type { ptr, ptr }

@plugin_inited = internal global i32 0, align 4
@g_context_lock = internal global %union.pthread_mutex_t zeroinitializer, align 8
@.str.48 = private unnamed_addr constant [29 x i8] c"%s: pthread_mutex_lock(): %m\00", align 1
@g_context = internal global ptr null, align 8
@.str.53 = private unnamed_addr constant [31 x i8] c"%s: pthread_mutex_unlock(): %m\00", align 1
@__func__.cgroup_g_fini = private unnamed_addr constant [14 x i8] c"cgroup_g_fini\00", align 1

; Function Attrs: nounwind uwtable
define dso_local i32 @cgroup_g_fini() #0 {
  %1 = alloca i32, align 4
  %2 = alloca i32, align 4
  %3 = alloca i32, align 4
  call void @llvm.lifetime.start.p0(i64 4, ptr %1) #9
  store i32 0, ptr %1, align 4
  br label %4

4:                                                ; preds = %0
  call void @llvm.lifetime.start.p0(i64 4, ptr %2) #9
  %5 = call i32 @pthread_mutex_lock(ptr noundef @g_context_lock) #9
  store i32 %5, ptr %2, align 4
  %6 = load i32, ptr %2, align 4
  %7 = icmp ne i32 %6, 0
  br i1 %7, label %8, label %11

8:                                                ; preds = %4
  %9 = load i32, ptr %2, align 4
  %10 = call ptr @__errno_location() #10
  store i32 %9, ptr %10, align 4
  call void (ptr, ...) @fatal_abort(ptr noundef @.str.48, ptr noundef @__func__.cgroup_g_fini) #11
  unreachable

11:                                               ; preds = %4
  call void @llvm.lifetime.end.p0(i64 4, ptr %2) #9
  br label %12

12:                                               ; preds = %11
  br label %13

13:                                               ; preds = %12
  %14 = load ptr, ptr @g_context, align 8
  %15 = icmp ne ptr %14, null
  br i1 %15, label %16, label %19

16:                                               ; preds = %13
  %17 = load ptr, ptr @g_context, align 8
  %18 = call i32 @plugin_context_destroy(ptr noundef %17)
  store i32 %18, ptr %1, align 4
  store ptr null, ptr @g_context, align 8
  br label %19

19:                                               ; preds = %16, %13
  call void @cgroup_conf_destroy()
  store i32 0, ptr @plugin_inited, align 4
  br label %20

20:                                               ; preds = %19
  call void @llvm.lifetime.start.p0(i64 4, ptr %3) #9
  %21 = call i32 @pthread_mutex_unlock(ptr noundef @g_context_lock) #9
  store i32 %21, ptr %3, align 4
  %22 = load i32, ptr %3, align 4
  %23 = icmp ne i32 %22, 0
  br i1 %23, label %24, label %27

24:                                               ; preds = %20
  %25 = load i32, ptr %3, align 4
  %26 = call ptr @__errno_location() #10
  store i32 %25, ptr %26, align 4
  call void (ptr, ...) @fatal_abort(ptr noundef @.str.53, ptr noundef @__func__.cgroup_g_fini) #11
  unreachable

27:                                               ; preds = %20
  call void @llvm.lifetime.end.p0(i64 4, ptr %3) #9
  br label %28

28:                                               ; preds = %27
  br label %29

29:                                               ; preds = %28
  %30 = load i32, ptr %1, align 4
  call void @llvm.lifetime.end.p0(i64 4, ptr %1) #9
  ret i32 %30
}