; Function Attrs: nounwind uwtable
define dso_local i32 @cgroup_g_fini() local_unnamed_addr #0 {
  %1 = tail call i32 @pthread_mutex_lock(ptr noundef nonnull @g_context_lock) #12
  %.not = icmp eq i32 %1, 0
  br i1 %.not, label %4, label %2

2:                                                ; preds = %0
  %3 = tail call ptr @__errno_location() #13
  store i32 %1, ptr %3, align 4
  tail call void (ptr, ...) @fatal_abort(ptr noundef nonnull @.str.48, ptr noundef nonnull @__func__.cgroup_g_fini) #14
  unreachable

4:                                                ; preds = %0
  %5 = load ptr, ptr @g_context, align 8
  %.not8 = icmp eq ptr %5, null
  br i1 %.not8, label %8, label %6

6:                                                ; preds = %4
  %7 = tail call i32 @plugin_context_destroy(ptr noundef nonnull %5) #12
  store ptr null, ptr @g_context, align 8
  br label %8

8:                                                ; preds = %6, %4
  %.0 = phi i32 [ %7, %6 ], [ 0, %4 ]
  tail call void @cgroup_conf_destroy()
  store i32 0, ptr @plugin_inited, align 4
  %9 = tail call i32 @pthread_mutex_unlock(ptr noundef nonnull @g_context_lock) #12
  %.not9 = icmp eq i32 %9, 0
  br i1 %.not9, label %12, label %10

10:                                               ; preds = %8
  %11 = tail call ptr @__errno_location() #13
  store i32 %9, ptr %11, align 4
  tail call void (ptr, ...) @fatal_abort(ptr noundef nonnull @.str.53, ptr noundef nonnull @__func__.cgroup_g_fini) #14
  unreachable

12:                                               ; preds = %8
  ret i32 %.0
}